; Function Attrs: mustprogress uwtable
define void @_ZN4toku16locktree_manager18escalate_locktreesEPPNS_8locktreeEi(ptr noundef nonnull align 8 dereferenceable(392) %0, ptr noundef readonly captures(none) %1, i32 noundef %2) local_unnamed_addr #0 align 2 {
  %4 = tail call { i32, i32 } asm sideeffect "rdtsc", "={ax},={dx},~{dirflag},~{fpsr},~{flags}"() #14, !srcloc !69
  %5 = icmp sgt i32 %2, 0
  br i1 %5, label %.lr.ph, label %._crit_edge

.lr.ph:                                           ; preds = %3
  %6 = getelementptr inbounds nuw i8, ptr %0, i64 72
  %7 = getelementptr inbounds nuw i8, ptr %0, i64 80
  %wide.trip.count = zext nneg i32 %2 to i64
  br label %31

._crit_edge:                                      ; preds = %31, %3
  %8 = extractvalue { i32, i32 } %4, 1
  %.neg13 = sub i32 0, %8
  %.neg13.z = zext i32 %.neg13 to i64
  %.neg12 = shl nuw i64 %.neg13.z, 32
  %9 = extractvalue { i32, i32 } %4, 0
  %10 = zext i32 %9 to i64
  %11 = tail call { i32, i32 } asm sideeffect "rdtsc", "={ax},={dx},~{dirflag},~{fpsr},~{flags}"() #14, !srcloc !69
  %12 = extractvalue { i32, i32 } %11, 0
  %13 = extractvalue { i32, i32 } %11, 1
  %14 = zext i32 %13 to i64
  %15 = shl nuw i64 %14, 32
  %16 = zext i32 %12 to i64
  %17 = getelementptr inbounds nuw i8, ptr %0, i64 176
  %18 = tail call i32 @pthread_mutex_lock(ptr noundef nonnull %17) #14
  %19 = getelementptr inbounds nuw i8, ptr %0, i64 224
  %20 = load i64, ptr %19, align 8, !tbaa !71
  %21 = add i64 %20, 1
  store i64 %21, ptr %19, align 8, !tbaa !71
  %.neg10 = sub i64 %.neg12, %10
  %22 = getelementptr inbounds nuw i8, ptr %0, i64 232
  %23 = load i64, ptr %22, align 8, !tbaa !72
  %24 = add i64 %.neg10, %16
  %25 = add i64 %24, %15
  %26 = add i64 %25, %23
  store i64 %26, ptr %22, align 8, !tbaa !72
  %27 = getelementptr inbounds nuw i8, ptr %0, i64 8
  %28 = load i64, ptr %27, align 8, !tbaa !34
  %29 = getelementptr inbounds nuw i8, ptr %0, i64 240
  store i64 %28, ptr %29, align 8, !tbaa !73
  %30 = tail call i32 @pthread_mutex_unlock(ptr noundef nonnull %17) #14
  ret void

31:                                               ; preds = %.lr.ph, %31
  %indvars.iv = phi i64 [ 0, %.lr.ph ], [ %indvars.iv.next, %31 ]
  %32 = getelementptr inbounds nuw ptr, ptr %1, i64 %indvars.iv
  %33 = load ptr, ptr %32, align 8, !tbaa !46
  %34 = load ptr, ptr %6, align 8, !tbaa !39
  %35 = load ptr, ptr %7, align 8, !tbaa !40
  tail call void @_ZN4toku8locktree8escalateEPFvmPKS0_RKNS_12range_bufferEPvES6_(ptr noundef nonnull align 8 dereferenceable(400) %33, ptr noundef %34, ptr noundef %35)
  %36 = load ptr, ptr %32, align 8, !tbaa !46
  tail call void @_ZN4toku16locktree_manager10release_ltEPNS_8locktreeE(ptr noundef nonnull align 8 dereferenceable(392) %0, ptr noundef %36)
  %indvars.iv.next = add nuw nsw i64 %indvars.iv, 1
  %exitcond.not = icmp eq i64 %indvars.iv.next, %wide.trip.count
  br i1 %exitcond.not, label %._crit_edge, label %31, !llvm.loop !70
}